target datalayout = "e-m:e-p270:32:32-p271:32:32-p272:64:64-i64:64-i128:128-f80:128-n8:16:32:64-S128"
target triple = "x86_64-pc-linux-gnu"

%struct.Nwk_Grf_t_ = type { i32, i32, i32, ptr, ptr, i32, i32, ptr, ptr, [17 x i32], [17 x i32], ptr, ptr, ptr, i32, i32 }
%struct.Nwk_Vrt_t_ = type { i32, i32, i32, i32, [0 x i32] }

; Function Attrs: inlinehint nounwind uwtable
define internal void @Nwk_ManGraphListDelete(ptr noundef %0, ptr noundef %1, ptr noundef %2) #4 {
  %4 = alloca ptr, align 8
  %5 = alloca ptr, align 8
  %6 = alloca ptr, align 8
  store ptr %0, ptr %4, align 8, !tbaa !7
  store ptr %1, ptr %5, align 8, !tbaa !49
  store ptr %2, ptr %6, align 8, !tbaa !52
  %7 = load ptr, ptr %6, align 8, !tbaa !52
  %8 = getelementptr inbounds nuw %struct.Nwk_Vrt_t_, ptr %7, i32 0, i32 1
  %9 = load i32, ptr %8, align 4, !tbaa !143
  %10 = icmp ne i32 %9, 0
  br i1 %10, label %11, label %25

11:                                               ; preds = %3
  %12 = load ptr, ptr %6, align 8, !tbaa !52
  %13 = getelementptr inbounds nuw %struct.Nwk_Vrt_t_, ptr %12, i32 0, i32 2
  %14 = load i32, ptr %13, align 4, !tbaa !72
  %15 = load ptr, ptr %4, align 8, !tbaa !7
  %16 = getelementptr inbounds nuw %struct.Nwk_Grf_t_, ptr %15, i32 0, i32 7
  %17 = load ptr, ptr %16, align 8, !tbaa !31
  %18 = load ptr, ptr %6, align 8, !tbaa !52
  %19 = getelementptr inbounds nuw %struct.Nwk_Vrt_t_, ptr %18, i32 0, i32 1
  %20 = load i32, ptr %19, align 4, !tbaa !143
  %21 = sext i32 %20 to i64
  %22 = getelementptr inbounds ptr, ptr %17, i64 %21
  %23 = load ptr, ptr %22, align 8, !tbaa !52
  %24 = getelementptr inbounds nuw %struct.Nwk_Vrt_t_, ptr %23, i32 0, i32 2
  store i32 %14, ptr %24, align 4, !tbaa !72
  br label %25

25:                                               ; preds = %11, %3
  %26 = load ptr, ptr %6, align 8, !tbaa !52
  %27 = getelementptr inbounds nuw %struct.Nwk_Vrt_t_, ptr %26, i32 0, i32 2
  %28 = load i32, ptr %27, align 4, !tbaa !72
  %29 = icmp ne i32 %28, 0
  br i1 %29, label %30, label %44

30:                                               ; preds = %25
  %31 = load ptr, ptr %6, align 8, !tbaa !52
  %32 = getelementptr inbounds nuw %struct.Nwk_Vrt_t_, ptr %31, i32 0, i32 1
  %33 = load i32, ptr %32, align 4, !tbaa !143
  %34 = load ptr, ptr %4, align 8, !tbaa !7
  %35 = getelementptr inbounds nuw %struct.Nwk_Grf_t_, ptr %34, i32 0, i32 7
  %36 = load ptr, ptr %35, align 8, !tbaa !31
  %37 = load ptr, ptr %6, align 8, !tbaa !52
  %38 = getelementptr inbounds nuw %struct.Nwk_Vrt_t_, ptr %37, i32 0, i32 2
  %39 = load i32, ptr %38, align 4, !tbaa !72
  %40 = sext i32 %39 to i64
  %41 = getelementptr inbounds ptr, ptr %36, i64 %40
  %42 = load ptr, ptr %41, align 8, !tbaa !52
  %43 = getelementptr inbounds nuw %struct.Nwk_Vrt_t_, ptr %42, i32 0, i32 1
  store i32 %33, ptr %43, align 4, !tbaa !143
  br label %44

44:                                               ; preds = %30, %25
  %45 = load ptr, ptr %5, align 8, !tbaa !49
  %46 = load i32, ptr %45, align 4, !tbaa !3
  %47 = load ptr, ptr %6, align 8, !tbaa !52
  %48 = getelementptr inbounds nuw %struct.Nwk_Vrt_t_, ptr %47, i32 0, i32 0
  %49 = load i32, ptr %48, align 4, !tbaa !54
  %50 = icmp eq i32 %46, %49
  br i1 %50, label %51, label %56

51:                                               ; preds = %44
  %52 = load ptr, ptr %6, align 8, !tbaa !52
  %53 = getelementptr inbounds nuw %struct.Nwk_Vrt_t_, ptr %52, i32 0, i32 2
  %54 = load i32, ptr %53, align 4, !tbaa !72
  %55 = load ptr, ptr %5, align 8, !tbaa !49
  store i32 %54, ptr %55, align 4, !tbaa !3
  br label %56

56:                                               ; preds = %51, %44
  %57 = load ptr, ptr %6, align 8, !tbaa !52
  %58 = getelementptr inbounds nuw %struct.Nwk_Vrt_t_, ptr %57, i32 0, i32 2
  store i32 0, ptr %58, align 4, !tbaa !72
  %59 = load ptr, ptr %6, align 8, !tbaa !52
  %60 = getelementptr inbounds nuw %struct.Nwk_Vrt_t_, ptr %59, i32 0, i32 1
  store i32 0, ptr %60, align 4, !tbaa !143
  ret void
}

; Function Attrs: inlinehint nounwind uwtable
define internal void @Nwk_ManGraphListExtract(ptr noundef %0, ptr noundef %1) #4 {
  %3 = alloca ptr, align 8
  %4 = alloca ptr, align 8
  %5 = alloca ptr, align 8
  store ptr %0, ptr %3, align 8, !tbaa !7
  store ptr %1, ptr %4, align 8, !tbaa !52
  call void @llvm.lifetime.start.p0(i64 8, ptr %5) #11
  %6 = load ptr, ptr %4, align 8, !tbaa !52
  %7 = getelementptr inbounds nuw %struct.Nwk_Vrt_t_, ptr %6, i32 0, i32 3
  %8 = load i32, ptr %7, align 4, !tbaa !57
  %9 = icmp eq i32 %8, 1
  br i1 %9, label %10, label %44

10:                                               ; preds = %2
  %11 = load ptr, ptr %3, align 8, !tbaa !7
  %12 = getelementptr inbounds nuw %struct.Nwk_Grf_t_, ptr %11, i32 0, i32 7
  %13 = load ptr, ptr %12, align 8, !tbaa !31
  %14 = load ptr, ptr %4, align 8, !tbaa !52
  %15 = getelementptr inbounds nuw %struct.Nwk_Vrt_t_, ptr %14, i32 0, i32 4
  %16 = getelementptr inbounds [0 x i32], ptr %15, i64 0, i64 0
  %17 = load i32, ptr %16, align 4, !tbaa !3
  %18 = sext i32 %17 to i64
  %19 = getelementptr inbounds ptr, ptr %13, i64 %18
  %20 = load ptr, ptr %19, align 8, !tbaa !52
  store ptr %20, ptr %5, align 8, !tbaa !52
  %21 = load ptr, ptr %5, align 8, !tbaa !52
  %22 = getelementptr inbounds nuw %struct.Nwk_Vrt_t_, ptr %21, i32 0, i32 3
  %23 = load i32, ptr %22, align 4, !tbaa !57
  %24 = icmp sge i32 %23, 16
  br i1 %24, label %25, label %32

25:                                               ; preds = %10
  %26 = load ptr, ptr %3, align 8, !tbaa !7
  %27 = load ptr, ptr %3, align 8, !tbaa !7
  %28 = getelementptr inbounds nuw %struct.Nwk_Grf_t_, ptr %27, i32 0, i32 9
  %29 = getelementptr inbounds [17 x i32], ptr %28, i64 0, i64 0
  %30 = getelementptr inbounds i32, ptr %29, i64 16
  %31 = load ptr, ptr %4, align 8, !tbaa !52
  call void @Nwk_ManGraphListDelete(ptr noundef %26, ptr noundef %30, ptr noundef %31)
  br label %43

32:                                               ; preds = %10
  %33 = load ptr, ptr %3, align 8, !tbaa !7
  %34 = load ptr, ptr %3, align 8, !tbaa !7
  %35 = getelementptr inbounds nuw %struct.Nwk_Grf_t_, ptr %34, i32 0, i32 9
  %36 = getelementptr inbounds [17 x i32], ptr %35, i64 0, i64 0
  %37 = load ptr, ptr %5, align 8, !tbaa !52
  %38 = getelementptr inbounds nuw %struct.Nwk_Vrt_t_, ptr %37, i32 0, i32 3
  %39 = load i32, ptr %38, align 4, !tbaa !57
  %40 = sext i32 %39 to i64
  %41 = getelementptr inbounds i32, ptr %36, i64 %40
  %42 = load ptr, ptr %4, align 8, !tbaa !52
  call void @Nwk_ManGraphListDelete(ptr noundef %33, ptr noundef %41, ptr noundef %42)
  br label %43

43:                                               ; preds = %32, %25
  br label %68

44:                                               ; preds = %2
  %45 = load ptr, ptr %4, align 8, !tbaa !52
  %46 = getelementptr inbounds nuw %struct.Nwk_Vrt_t_, ptr %45, i32 0, i32 3
  %47 = load i32, ptr %46, align 4, !tbaa !57
  %48 = icmp sge i32 %47, 16
  br i1 %48, label %49, label %56

49:                                               ; preds = %44
  %50 = load ptr, ptr %3, align 8, !tbaa !7
  %51 = load ptr, ptr %3, align 8, !tbaa !7
  %52 = getelementptr inbounds nuw %struct.Nwk_Grf_t_, ptr %51, i32 0, i32 10
  %53 = getelementptr inbounds [17 x i32], ptr %52, i64 0, i64 0
  %54 = getelementptr inbounds i32, ptr %53, i64 16
  %55 = load ptr, ptr %4, align 8, !tbaa !52
  call void @Nwk_ManGraphListDelete(ptr noundef %50, ptr noundef %54, ptr noundef %55)
  br label %67

56:                                               ; preds = %44
  %57 = load ptr, ptr %3, align 8, !tbaa !7
  %58 = load ptr, ptr %3, align 8, !tbaa !7
  %59 = getelementptr inbounds nuw %struct.Nwk_Grf_t_, ptr %58, i32 0, i32 10
  %60 = getelementptr inbounds [17 x i32], ptr %59, i64 0, i64 0
  %61 = load ptr, ptr %4, align 8, !tbaa !52
  %62 = getelementptr inbounds nuw %struct.Nwk_Vrt_t_, ptr %61, i32 0, i32 3
  %63 = load i32, ptr %62, align 4, !tbaa !57
  %64 = sext i32 %63 to i64
  %65 = getelementptr inbounds i32, ptr %60, i64 %64
  %66 = load ptr, ptr %4, align 8, !tbaa !52
  call void @Nwk_ManGraphListDelete(ptr noundef %57, ptr noundef %65, ptr noundef %66)
  br label %67

67:                                               ; preds = %56, %49
  br label %68

68:                                               ; preds = %67, %43
  call void @llvm.lifetime.end.p0(i64 8, ptr %5) #11
  ret void
}