; Function Attrs: inlinehint mustprogress nofree norecurse nosync nounwind willreturn memory(readwrite, inaccessiblemem: none) uwtable
define internal fastcc void @Nwk_ManGraphListExtract(ptr noundef captures(none) %0, ptr noundef captures(none) %1) unnamed_addr #10 {
  %3 = getelementptr inbounds nuw i8, ptr %1, i64 12
  %4 = load i32, ptr %3, align 4, !tbaa !53
  %5 = icmp eq i32 %4, 1
  br i1 %5, label %6, label %57

6:                                                ; preds = %2
  %7 = getelementptr inbounds nuw i8, ptr %0, i64 40
  %8 = load ptr, ptr %7, align 8, !tbaa !27
  %9 = getelementptr inbounds nuw i8, ptr %1, i64 16
  %10 = load i32, ptr %9, align 4, !tbaa !42
  %11 = sext i32 %10 to i64
  %12 = getelementptr inbounds ptr, ptr %8, i64 %11
  %13 = load ptr, ptr %12, align 8, !tbaa !48
  %14 = getelementptr inbounds nuw i8, ptr %13, i64 12
  %15 = load i32, ptr %14, align 4, !tbaa !53
  %16 = icmp sgt i32 %15, 15
  br i1 %16, label %17, label %36

17:                                               ; preds = %6
  %18 = getelementptr inbounds nuw i8, ptr %0, i64 120
  %19 = getelementptr inbounds nuw i8, ptr %1, i64 4
  %20 = load i32, ptr %19, align 4, !tbaa !56
  %.not.i = icmp eq i32 %20, 0
  %.phi.trans.insert.i = getelementptr inbounds nuw i8, ptr %1, i64 8
  %.pre.i = load i32, ptr %.phi.trans.insert.i, align 4, !tbaa !57
  br i1 %.not.i, label %._crit_edge.i, label %21

21:                                               ; preds = %17
  %22 = sext i32 %20 to i64
  %23 = getelementptr inbounds ptr, ptr %8, i64 %22
  %24 = load ptr, ptr %23, align 8, !tbaa !48
  %25 = getelementptr inbounds nuw i8, ptr %24, i64 8
  store i32 %.pre.i, ptr %25, align 4, !tbaa !57
  br label %._crit_edge.i

._crit_edge.i:                                    ; preds = %21, %17
  %.not15.i = icmp eq i32 %.pre.i, 0
  br i1 %.not15.i, label %31, label %26

26:                                               ; preds = %._crit_edge.i
  %27 = sext i32 %.pre.i to i64
  %28 = getelementptr inbounds ptr, ptr %8, i64 %27
  %29 = load ptr, ptr %28, align 8, !tbaa !48
  %30 = getelementptr inbounds nuw i8, ptr %29, i64 4
  store i32 %20, ptr %30, align 4, !tbaa !56
  br label %31

31:                                               ; preds = %26, %._crit_edge.i
  %32 = load i32, ptr %18, align 4, !tbaa !42
  %33 = load i32, ptr %1, align 4, !tbaa !50
  %34 = icmp eq i32 %32, %33
  br i1 %34, label %35, label %Nwk_ManGraphListDelete.exit

35:                                               ; preds = %31
  store i32 %.pre.i, ptr %18, align 4, !tbaa !42
  br label %Nwk_ManGraphListDelete.exit

Nwk_ManGraphListDelete.exit:                      ; preds = %31, %35
  store i32 0, ptr %.phi.trans.insert.i, align 4, !tbaa !57
  store i32 0, ptr %19, align 4, !tbaa !56
  br label %107

36:                                               ; preds = %6
  %37 = getelementptr inbounds nuw i8, ptr %0, i64 56
  %38 = sext i32 %15 to i64
  %39 = getelementptr inbounds i32, ptr %37, i64 %38
  %40 = getelementptr inbounds nuw i8, ptr %1, i64 4
  %41 = load i32, ptr %40, align 4, !tbaa !56
  %.not.i20 = icmp eq i32 %41, 0
  %.phi.trans.insert.i21 = getelementptr inbounds nuw i8, ptr %1, i64 8
  %.pre.i22 = load i32, ptr %.phi.trans.insert.i21, align 4, !tbaa !57
  br i1 %.not.i20, label %._crit_edge.i23, label %42

42:                                               ; preds = %36
  %43 = sext i32 %41 to i64
  %44 = getelementptr inbounds ptr, ptr %8, i64 %43
  %45 = load ptr, ptr %44, align 8, !tbaa !48
  %46 = getelementptr inbounds nuw i8, ptr %45, i64 8
  store i32 %.pre.i22, ptr %46, align 4, !tbaa !57
  br label %._crit_edge.i23

._crit_edge.i23:                                  ; preds = %42, %36
  %.not15.i24 = icmp eq i32 %.pre.i22, 0
  br i1 %.not15.i24, label %52, label %47

47:                                               ; preds = %._crit_edge.i23
  %48 = sext i32 %.pre.i22 to i64
  %49 = getelementptr inbounds ptr, ptr %8, i64 %48
  %50 = load ptr, ptr %49, align 8, !tbaa !48
  %51 = getelementptr inbounds nuw i8, ptr %50, i64 4
  store i32 %41, ptr %51, align 4, !tbaa !56
  br label %52

52:                                               ; preds = %47, %._crit_edge.i23
  %53 = load i32, ptr %39, align 4, !tbaa !42
  %54 = load i32, ptr %1, align 4, !tbaa !50
  %55 = icmp eq i32 %53, %54
  br i1 %55, label %56, label %Nwk_ManGraphListDelete.exit25

56:                                               ; preds = %52
  store i32 %.pre.i22, ptr %39, align 4, !tbaa !42
  br label %Nwk_ManGraphListDelete.exit25

Nwk_ManGraphListDelete.exit25:                    ; preds = %52, %56
  store i32 0, ptr %.phi.trans.insert.i21, align 4, !tbaa !57
  store i32 0, ptr %40, align 4, !tbaa !56
  br label %107

57:                                               ; preds = %2
  %58 = icmp sgt i32 %4, 15
  br i1 %58, label %59, label %82

59:                                               ; preds = %57
  %60 = getelementptr inbounds nuw i8, ptr %0, i64 188
  %61 = getelementptr inbounds nuw i8, ptr %1, i64 4
  %62 = load i32, ptr %61, align 4, !tbaa !56
  %.not.i26 = icmp eq i32 %62, 0
  %.phi.trans.insert.i27 = getelementptr inbounds nuw i8, ptr %1, i64 8
  %.pre.i28 = load i32, ptr %.phi.trans.insert.i27, align 4, !tbaa !57
  br i1 %.not.i26, label %._crit_edge.i29, label %63

63:                                               ; preds = %59
  %64 = getelementptr inbounds nuw i8, ptr %0, i64 40
  %65 = load ptr, ptr %64, align 8, !tbaa !27
  %66 = sext i32 %62 to i64
  %67 = getelementptr inbounds ptr, ptr %65, i64 %66
  %68 = load ptr, ptr %67, align 8, !tbaa !48
  %69 = getelementptr inbounds nuw i8, ptr %68, i64 8
  store i32 %.pre.i28, ptr %69, align 4, !tbaa !57
  br label %._crit_edge.i29

._crit_edge.i29:                                  ; preds = %63, %59
  %.not15.i30 = icmp eq i32 %.pre.i28, 0
  br i1 %.not15.i30, label %77, label %70

70:                                               ; preds = %._crit_edge.i29
  %71 = getelementptr inbounds nuw i8, ptr %0, i64 40
  %72 = load ptr, ptr %71, align 8, !tbaa !27
  %73 = sext i32 %.pre.i28 to i64
  %74 = getelementptr inbounds ptr, ptr %72, i64 %73
  %75 = load ptr, ptr %74, align 8, !tbaa !48
  %76 = getelementptr inbounds nuw i8, ptr %75, i64 4
  store i32 %62, ptr %76, align 4, !tbaa !56
  br label %77

77:                                               ; preds = %70, %._crit_edge.i29
  %78 = load i32, ptr %60, align 4, !tbaa !42
  %79 = load i32, ptr %1, align 4, !tbaa !50
  %80 = icmp eq i32 %78, %79
  br i1 %80, label %81, label %Nwk_ManGraphListDelete.exit31

81:                                               ; preds = %77
  store i32 %.pre.i28, ptr %60, align 4, !tbaa !42
  br label %Nwk_ManGraphListDelete.exit31

Nwk_ManGraphListDelete.exit31:                    ; preds = %77, %81
  store i32 0, ptr %.phi.trans.insert.i27, align 4, !tbaa !57
  store i32 0, ptr %61, align 4, !tbaa !56
  br label %107

82:                                               ; preds = %57
  %83 = getelementptr inbounds nuw i8, ptr %0, i64 124
  %84 = sext i32 %4 to i64
  %85 = getelementptr inbounds i32, ptr %83, i64 %84
  %86 = getelementptr inbounds nuw i8, ptr %1, i64 4
  %87 = load i32, ptr %86, align 4, !tbaa !56
  %.not.i32 = icmp eq i32 %87, 0
  %.phi.trans.insert.i33 = getelementptr inbounds nuw i8, ptr %1, i64 8
  %.pre.i34 = load i32, ptr %.phi.trans.insert.i33, align 4, !tbaa !57
  br i1 %.not.i32, label %._crit_edge.i35, label %88

88:                                               ; preds = %82
  %89 = getelementptr inbounds nuw i8, ptr %0, i64 40
  %90 = load ptr, ptr %89, align 8, !tbaa !27
  %91 = sext i32 %87 to i64
  %92 = getelementptr inbounds ptr, ptr %90, i64 %91
  %93 = load ptr, ptr %92, align 8, !tbaa !48
  %94 = getelementptr inbounds nuw i8, ptr %93, i64 8
  store i32 %.pre.i34, ptr %94, align 4, !tbaa !57
  br label %._crit_edge.i35

._crit_edge.i35:                                  ; preds = %88, %82
  %.not15.i36 = icmp eq i32 %.pre.i34, 0
  br i1 %.not15.i36, label %102, label %95

95:                                               ; preds = %._crit_edge.i35
  %96 = getelementptr inbounds nuw i8, ptr %0, i64 40
  %97 = load ptr, ptr %96, align 8, !tbaa !27
  %98 = sext i32 %.pre.i34 to i64
  %99 = getelementptr inbounds ptr, ptr %97, i64 %98
  %100 = load ptr, ptr %99, align 8, !tbaa !48
  %101 = getelementptr inbounds nuw i8, ptr %100, i64 4
  store i32 %87, ptr %101, align 4, !tbaa !56
  br label %102

102:                                              ; preds = %95, %._crit_edge.i35
  %103 = load i32, ptr %85, align 4, !tbaa !42
  %104 = load i32, ptr %1, align 4, !tbaa !50
  %105 = icmp eq i32 %103, %104
  br i1 %105, label %106, label %Nwk_ManGraphListDelete.exit37

106:                                              ; preds = %102
  store i32 %.pre.i34, ptr %85, align 4, !tbaa !42
  br label %Nwk_ManGraphListDelete.exit37

Nwk_ManGraphListDelete.exit37:                    ; preds = %102, %106
  store i32 0, ptr %.phi.trans.insert.i33, align 4, !tbaa !57
  store i32 0, ptr %86, align 4, !tbaa !56
  br label %107

107:                                              ; preds = %Nwk_ManGraphListDelete.exit31, %Nwk_ManGraphListDelete.exit37, %Nwk_ManGraphListDelete.exit, %Nwk_ManGraphListDelete.exit25
  ret void
}